target datalayout = "e-m:e-p270:32:32-p271:32:32-p272:64:64-i64:64-i128:128-f80:128-n8:16:32:64-S128"
target triple = "x86_64-pc-linux-gnu"

%struct.part_res_record = type { ptr, i16, ptr, i8, ptr }

; Function Attrs: nounwind uwtable
define dso_local void @part_data_rebuild_rows(ptr noundef %0) #0 {
  %2 = alloca ptr, align 8
  store ptr %0, ptr %2, align 8
  br label %3

3:                                                ; preds = %14, %1
  %4 = load ptr, ptr %2, align 8
  %5 = icmp ne ptr %4, null
  br i1 %5, label %6, label %18

6:                                                ; preds = %3
  %7 = load ptr, ptr %2, align 8
  %8 = getelementptr inbounds nuw %struct.part_res_record, ptr %7, i32 0, i32 3
  %9 = load i8, ptr %8, align 8, !range !28, !noundef !29
  %10 = trunc i8 %9 to i1
  br i1 %10, label %11, label %13

11:                                               ; preds = %6
  %12 = load ptr, ptr %2, align 8
  call void @part_data_build_row_bitmaps(ptr noundef %12, ptr noundef null)
  br label %13

13:                                               ; preds = %11, %6
  br label %14

14:                                               ; preds = %13
  %15 = load ptr, ptr %2, align 8
  %16 = getelementptr inbounds nuw %struct.part_res_record, ptr %15, i32 0, i32 0
  %17 = load ptr, ptr %16, align 8
  store ptr %17, ptr %2, align 8
  br label %3, !llvm.loop !34

18:                                               ; preds = %3
  ret void
}