; Function Attrs: nounwind uwtable
define dso_local void @part_data_rebuild_rows(ptr noundef captures(address_is_null) %0) local_unnamed_addr #0 {
  %.not4 = icmp eq ptr %0, null
  br i1 %.not4, label %._crit_edge, label %.lr.ph

.lr.ph:                                           ; preds = %1, %6
  %.05 = phi ptr [ %7, %6 ], [ %0, %1 ]
  %2 = getelementptr inbounds nuw i8, ptr %.05, i64 24
  %3 = load i8, ptr %2, align 8, !range !29, !noundef !30
  %4 = trunc nuw i8 %3 to i1
  br i1 %4, label %5, label %6

5:                                                ; preds = %.lr.ph
  tail call void @part_data_build_row_bitmaps(ptr noundef nonnull %.05, ptr noundef null)
  br label %6

6:                                                ; preds = %.lr.ph, %5
  %7 = load ptr, ptr %.05, align 8
  %.not = icmp eq ptr %7, null
  br i1 %.not, label %._crit_edge, label %.lr.ph, !llvm.loop !34

._crit_edge:                                      ; preds = %6, %1
  ret void
}